; Function Attrs: null_pointer_is_valid sspstrong uwtable
define internal i32 @dissect_ldap_T_greaterOrEqual(i1 noundef zeroext %0, ptr noundef %1, i32 noundef %2, ptr noundef %3, ptr noundef %4, i32 noundef %5) #0 {
  %7 = load i32, ptr @ett_ldap_AttributeValueAssertion, align 4
  %8 = tail call i32 @dissect_ber_sequence(i1 noundef zeroext %0, ptr noundef %3, ptr noundef %4, ptr noundef %1, i32 noundef %2, ptr noundef nonnull @AttributeValueAssertion_sequence, i32 noundef %5, i32 noundef %7)
  %9 = getelementptr inbounds nuw i8, ptr %3, i64 16
  %10 = load ptr, ptr %9, align 8
  %11 = getelementptr inbounds nuw i8, ptr %10, i64 408
  %12 = load ptr, ptr %11, align 8
  %13 = load ptr, ptr @attributedesc_string, align 8
  %.not = icmp eq ptr %13, null
  %14 = select i1 %.not, ptr @.str.892, ptr %13
  %15 = load ptr, ptr @ldapvalue_string, align 8
  %.not7 = icmp eq ptr %15, null
  %16 = select i1 %.not7, ptr @.str.892, ptr %15
  %17 = tail call noalias ptr (ptr, ptr, ...) @wmem_strdup_printf(ptr noundef %12, ptr noundef nonnull @.str.917, ptr noundef nonnull %14, ptr noundef nonnull %16)
  store ptr %17, ptr @Filter_string, align 8
  ret i32 %8
}